; Function Attrs: mustprogress nofree norecurse nosync nounwind willreturn memory(argmem: read) uwtable
define hidden i32 @sk_is_sorted(ptr noundef readonly captures(address_is_null) %0) local_unnamed_addr #3 {
  %.not = icmp eq ptr %0, null
  br i1 %.not, label %6, label %2

2:                                                ; preds = %1
  %3 = getelementptr inbounds nuw i8, ptr %0, i64 16
  %4 = load i64, ptr %3, align 8, !tbaa !15
  %5 = trunc i64 %4 to i32
  br label %6

6:                                                ; preds = %1, %2
  %.0 = phi i32 [ %5, %2 ], [ 1, %1 ]
  ret i32 %.0
}